; Function Attrs: mustprogress nounwind uwtable
define dso_local void @_ZN4base9ListValue5ClearEv(ptr nocapture noundef nonnull align 8 dereferenceable(40) %this) local_unnamed_addr #1 align 2 personality ptr @__gxx_personality_v0 {
entry:
  %list_ = getelementptr inbounds i8, ptr %this, i64 16
  %0 = load ptr, ptr %list_, align 8
  %_M_finish.i.i = getelementptr inbounds i8, ptr %this, i64 24
  %1 = load ptr, ptr %_M_finish.i.i, align 8
  %tobool.not.i.i = icmp eq ptr %1, %0
  br i1 %tobool.not.i.i, label %_ZNSt6vectorISt10unique_ptrIN4base5ValueESt14default_deleteIS2_EESaIS5_EE5clearEv.exit, label %for.body.i.i.i.i.i

for.body.i.i.i.i.i:                               ; preds = %entry, %_ZSt8_DestroyISt10unique_ptrIN4base5ValueESt14default_deleteIS2_EEEvPT_.exit.i.i.i.i.i
  %__first.addr.04.i.i.i.i.i = phi ptr [ %incdec.ptr.i.i.i.i.i, %_ZSt8_DestroyISt10unique_ptrIN4base5ValueESt14default_deleteIS2_EEEvPT_.exit.i.i.i.i.i ], [ %0, %entry ]
  %2 = load ptr, ptr %__first.addr.04.i.i.i.i.i, align 8
  %cmp.not.i.i.i.i.i.i.i = icmp eq ptr %2, null
  br i1 %cmp.not.i.i.i.i.i.i.i, label %_ZSt8_DestroyISt10unique_ptrIN4base5ValueESt14default_deleteIS2_EEEvPT_.exit.i.i.i.i.i, label %_ZNKSt14default_deleteIN4base5ValueEEclEPS1_.exit.i.i.i.i.i.i.i

_ZNKSt14default_deleteIN4base5ValueEEclEPS1_.exit.i.i.i.i.i.i.i: ; preds = %for.body.i.i.i.i.i
  %vtable.i.i.i.i.i.i.i.i = load ptr, ptr %2, align 8
  %vfn.i.i.i.i.i.i.i.i = getelementptr inbounds i8, ptr %vtable.i.i.i.i.i.i.i.i, i64 8
  %3 = load ptr, ptr %vfn.i.i.i.i.i.i.i.i, align 8
  tail call void %3(ptr noundef nonnull align 8 dereferenceable(12) %2) #26
  br label %_ZSt8_DestroyISt10unique_ptrIN4base5ValueESt14default_deleteIS2_EEEvPT_.exit.i.i.i.i.i

_ZSt8_DestroyISt10unique_ptrIN4base5ValueESt14default_deleteIS2_EEEvPT_.exit.i.i.i.i.i: ; preds = %_ZNKSt14default_deleteIN4base5ValueEEclEPS1_.exit.i.i.i.i.i.i.i, %for.body.i.i.i.i.i
  store ptr null, ptr %__first.addr.04.i.i.i.i.i, align 8
  %incdec.ptr.i.i.i.i.i = getelementptr inbounds i8, ptr %__first.addr.04.i.i.i.i.i, i64 8
  %cmp.not.i.i.i.i.i = icmp eq ptr %incdec.ptr.i.i.i.i.i, %1
  br i1 %cmp.not.i.i.i.i.i, label %invoke.cont.i.i, label %for.body.i.i.i.i.i, !llvm.loop !58

invoke.cont.i.i:                                  ; preds = %_ZSt8_DestroyISt10unique_ptrIN4base5ValueESt14default_deleteIS2_EEEvPT_.exit.i.i.i.i.i
  store ptr %0, ptr %_M_finish.i.i, align 8
  br label %_ZNSt6vectorISt10unique_ptrIN4base5ValueESt14default_deleteIS2_EESaIS5_EE5clearEv.exit

_ZNSt6vectorISt10unique_ptrIN4base5ValueESt14default_deleteIS2_EESaIS5_EE5clearEv.exit: ; preds = %entry, %invoke.cont.i.i
  ret void
}